target datalayout = "e-m:e-p270:32:32-p271:32:32-p272:64:64-i64:64-i128:128-f80:128-n8:16:32:64-S128"
target triple = "x86_64-pc-linux-gnu"

%struct._hist_state = type { ptr, i32, i32, i32, i32 }

; Function Attrs: nounwind uwtable
define internal i32 @_py_get_history_length() #0 {
  %1 = alloca ptr, align 8
  %2 = alloca i32, align 4
  call void @llvm.lifetime.start.p0(i64 8, ptr %1) #10
  %3 = call ptr @history_get_history_state()
  store ptr %3, ptr %1, align 8, !tbaa !40
  call void @llvm.lifetime.start.p0(i64 4, ptr %2) #10
  %4 = load ptr, ptr %1, align 8, !tbaa !40
  %5 = getelementptr inbounds nuw %struct._hist_state, ptr %4, i32 0, i32 2
  %6 = load i32, ptr %5, align 4, !tbaa !42
  store i32 %6, ptr %2, align 4, !tbaa !8
  %7 = load ptr, ptr %1, align 8, !tbaa !40
  call void @free(ptr noundef %7) #10
  %8 = load i32, ptr %2, align 4, !tbaa !8
  call void @llvm.lifetime.end.p0(i64 4, ptr %2) #10
  call void @llvm.lifetime.end.p0(i64 8, ptr %1) #10
  ret i32 %8
}

; Function Attrs: nounwind uwtable
define internal ptr @readline_get_current_history_length_impl(ptr noundef %0) #0 {
  %2 = alloca ptr, align 8
  store ptr %0, ptr %2, align 8, !tbaa !19
  %3 = call i32 @_py_get_history_length()
  %4 = sext i32 %3 to i64
  %5 = call ptr @PyLong_FromLong(i64 noundef %4)
  ret ptr %5
}

; Function Attrs: nounwind uwtable
define internal ptr @readline_get_current_history_length(ptr noundef %0, ptr noundef %1) #0 {
  %3 = alloca ptr, align 8
  %4 = alloca ptr, align 8
  store ptr %0, ptr %3, align 8, !tbaa !19
  store ptr %1, ptr %4, align 8, !tbaa !19
  %5 = load ptr, ptr %3, align 8, !tbaa !19
  %6 = call ptr @readline_get_current_history_length_impl(ptr noundef %5)
  ret ptr %6
}