; Function Attrs: nounwind uwtable
define internal ptr @readline_get_current_history_length(ptr readnone captures(none) %0, ptr readnone captures(none) %1) #0 {
  %3 = tail call ptr @history_get_history_state() #14
  %4 = getelementptr inbounds nuw i8, ptr %3, i64 12
  %5 = load i32, ptr %4, align 4, !tbaa !34
  tail call void @free(ptr noundef %3) #14
  %6 = sext i32 %5 to i64
  %7 = tail call ptr @PyLong_FromLong(i64 noundef %6) #14
  ret ptr %7
}